target datalayout = "e-m:e-p270:32:32-p271:32:32-p272:64:64-i64:64-i128:128-f80:128-n8:16:32:64-S128"
target triple = "x86_64-pc-linux-gnu"

%struct.SDL_GPUDevice = type { ptr, ptr, ptr, ptr, ptr, ptr, ptr, ptr, ptr, ptr, ptr, ptr, ptr, ptr, ptr, ptr, ptr, ptr, ptr, ptr, ptr, ptr, ptr, ptr, ptr, ptr, ptr, ptr, ptr, ptr, ptr, ptr, ptr, ptr, ptr, ptr, ptr, ptr, ptr, ptr, ptr, ptr, ptr, ptr, ptr, ptr, ptr, ptr, ptr, ptr, ptr, ptr, ptr, ptr, ptr, ptr, ptr, ptr, ptr, ptr, ptr, ptr, ptr, ptr, ptr, ptr, ptr, ptr, ptr, ptr, ptr, ptr, ptr, ptr, ptr, ptr, ptr, ptr, ptr, ptr, ptr, ptr, ptr, ptr, ptr, i32, i8 }
%struct.CommandBufferCommonHeader = type { ptr, %struct.RenderPass, i8, %struct.Pass, i8, %struct.Pass, i8, i8, i8 }
%struct.RenderPass = type { ptr, i8, [4 x ptr], i32, ptr }
%struct.Pass = type { ptr, i8 }

@.str.4 = private unnamed_addr constant [26 x i8] c"Parameter '%s' is invalid\00", align 1
@.str.8 = private unnamed_addr constant [103 x i8] c"generated/home/dtcxzyw/WorkSpace/Projects/compilers/llvm-opt-benchmark/bench/sdl/SDL/src/gpu/SDL_gpu.c\00", align 1
@.str.179 = private unnamed_addr constant [15 x i8] c"command_buffer\00", align 1
@.str.183 = private unnamed_addr constant [5 x i8] c"data\00", align 1
@SDL_PushGPUComputeUniformData_REAL.sdl_assert_data = internal global { i8, [3 x i8], i32, ptr, ptr, i32, [4 x i8], ptr, ptr } { i8 0, [3 x i8] zeroinitializer, i32 0, ptr @.str.181, ptr null, i32 0, [4 x i8] zeroinitializer, ptr null, ptr null }, align 8
@__func__.SDL_PushGPUComputeUniformData_REAL = private unnamed_addr constant [35 x i8] c"SDL_PushGPUComputeUniformData_REAL\00", align 1

; Function Attrs: nounwind uwtable
define hidden void @SDL_PushGPUComputeUniformData_REAL(ptr noundef %0, i32 noundef %1, ptr noundef %2, i32 noundef %3) #0 {
  %5 = alloca ptr, align 8
  %6 = alloca i32, align 4
  %7 = alloca ptr, align 8
  %8 = alloca i32, align 4
  %9 = alloca i32, align 4
  %10 = alloca i32, align 4
  store ptr %0, ptr %5, align 8
  store i32 %1, ptr %6, align 4
  store ptr %2, ptr %7, align 8
  store i32 %3, ptr %8, align 4
  %11 = load ptr, ptr %5, align 8
  %12 = icmp eq ptr %11, null
  br i1 %12, label %13, label %15

13:                                               ; preds = %4
  %14 = call zeroext i1 (ptr, ...) @SDL_SetError_REAL(ptr noundef @.str.4, ptr noundef @.str.179)
  br label %60

15:                                               ; preds = %4
  %16 = load ptr, ptr %7, align 8
  %17 = icmp eq ptr %16, null
  br i1 %17, label %18, label %20

18:                                               ; preds = %15
  %19 = call zeroext i1 (ptr, ...) @SDL_SetError_REAL(ptr noundef @.str.4, ptr noundef @.str.183)
  br label %60

20:                                               ; preds = %15
  %21 = load ptr, ptr %5, align 8
  %22 = getelementptr inbounds nuw %struct.CommandBufferCommonHeader, ptr %21, i32 0, i32 0
  %23 = load ptr, ptr %22, align 8
  %24 = getelementptr inbounds nuw %struct.SDL_GPUDevice, ptr %23, i32 0, i32 86
  %25 = load i8, ptr %24, align 4, !range !5, !noundef !6
  %26 = trunc i8 %25 to i1
  br i1 %26, label %27, label %50

27:                                               ; preds = %20
  %28 = load ptr, ptr %5, align 8
  %29 = getelementptr inbounds nuw %struct.CommandBufferCommonHeader, ptr %28, i32 0, i32 7
  %30 = load i8, ptr %29, align 1, !range !5, !noundef !6
  %31 = trunc i8 %30 to i1
  br i1 %31, label %32, label %49

32:                                               ; preds = %27
  br label %33

33:                                               ; preds = %32
  br label %34

34:                                               ; preds = %33, %45
  call void @llvm.lifetime.start.p0(i64 4, ptr %9) #6
  %35 = call i32 @SDL_ReportAssertion_REAL(ptr noundef @SDL_PushGPUComputeUniformData_REAL.sdl_assert_data, ptr noundef @__func__.SDL_PushGPUComputeUniformData_REAL, ptr noundef @.str.8, i32 noundef 1568)
  store i32 %35, ptr %9, align 4
  %36 = load i32, ptr %9, align 4
  %37 = icmp eq i32 %36, 0
  br i1 %37, label %38, label %39

38:                                               ; preds = %34
  store i32 4, ptr %10, align 4
  br label %45

39:                                               ; preds = %34
  %40 = load i32, ptr %9, align 4
  %41 = icmp eq i32 %40, 1
  br i1 %41, label %42, label %43

42:                                               ; preds = %39
  call void @llvm.debugtrap()
  br label %43

43:                                               ; preds = %42, %39
  br label %44

44:                                               ; preds = %43
  store i32 5, ptr %10, align 4
  br label %45

45:                                               ; preds = %44, %38
  call void @llvm.lifetime.end.p0(i64 4, ptr %9) #6
  %46 = load i32, ptr %10, align 4
  switch i32 %46, label %61 [
    i32 4, label %34
    i32 5, label %47
  ]

47:                                               ; preds = %45
  br label %48

48:                                               ; preds = %47
  br label %60

49:                                               ; preds = %27
  br label %50

50:                                               ; preds = %49, %20
  %51 = load ptr, ptr %5, align 8
  %52 = getelementptr inbounds nuw %struct.CommandBufferCommonHeader, ptr %51, i32 0, i32 0
  %53 = load ptr, ptr %52, align 8
  %54 = getelementptr inbounds nuw %struct.SDL_GPUDevice, ptr %53, i32 0, i32 47
  %55 = load ptr, ptr %54, align 8
  %56 = load ptr, ptr %5, align 8
  %57 = load i32, ptr %6, align 4
  %58 = load ptr, ptr %7, align 8
  %59 = load i32, ptr %8, align 4
  call void %55(ptr noundef %56, i32 noundef %57, ptr noundef %58, i32 noundef %59)
  br label %60

60:                                               ; preds = %50, %48, %18, %13
  ret void

61:                                               ; preds = %45
  unreachable
}