; Function Attrs: nounwind uwtable
define hidden void @SDL_PushGPUComputeUniformData_REAL(ptr noundef %0, i32 noundef %1, ptr noundef %2, i32 noundef %3) local_unnamed_addr #0 {
  %5 = icmp eq ptr %0, null
  br i1 %5, label %6, label %8

6:                                                ; preds = %4
  %7 = tail call zeroext i1 (ptr, ...) @SDL_SetError_REAL(ptr noundef nonnull @.str.4, ptr noundef nonnull @.str.179) #7
  br label %.thread

8:                                                ; preds = %4
  %9 = icmp eq ptr %2, null
  br i1 %9, label %10, label %12

10:                                               ; preds = %8
  %11 = tail call zeroext i1 (ptr, ...) @SDL_SetError_REAL(ptr noundef nonnull @.str.4, ptr noundef nonnull @.str.183) #7
  br label %.thread

12:                                               ; preds = %8
  %13 = load ptr, ptr %0, align 8
  %14 = getelementptr inbounds nuw i8, ptr %13, i64 684
  %15 = load i8, ptr %14, align 4, !range !5, !noundef !6
  %16 = trunc nuw i8 %15 to i1
  br i1 %16, label %17, label %23

17:                                               ; preds = %12
  %18 = getelementptr inbounds nuw i8, ptr %0, i64 121
  %19 = load i8, ptr %18, align 1, !range !5, !noundef !6
  %20 = trunc nuw i8 %19 to i1
  br i1 %20, label %.preheader, label %23

.preheader:                                       ; preds = %17, %.preheader
  %21 = tail call i32 @SDL_ReportAssertion_REAL(ptr noundef nonnull @SDL_PushGPUComputeUniformData_REAL.sdl_assert_data, ptr noundef nonnull @__func__.SDL_PushGPUComputeUniformData_REAL, ptr noundef nonnull @.str.8, i32 noundef 1568) #7
  switch i32 %21, label %.thread [
    i32 0, label %.preheader
    i32 1, label %22
  ]

22:                                               ; preds = %.preheader
  tail call void @llvm.debugtrap()
  br label %.thread

23:                                               ; preds = %17, %12
  %24 = getelementptr inbounds nuw i8, ptr %13, i64 376
  %25 = load ptr, ptr %24, align 8
  tail call void %25(ptr noundef nonnull %0, i32 noundef %1, ptr noundef nonnull %2, i32 noundef %3) #7
  br label %.thread

.thread:                                          ; preds = %.preheader, %22, %23, %10, %6
  ret void
}